target datalayout = "e-m:e-p270:32:32-p271:32:32-p272:64:64-i64:64-i128:128-f80:128-n8:16:32:64-S128"
target triple = "x86_64-pc-linux-gnu"

%struct.hb_unicode_funcs_t = type { %struct.hb_object_header_t, ptr, %struct.anon.1, %struct.anon.2, %struct.anon.3 }
%struct.hb_object_header_t = type { %struct.hb_reference_count_t, %struct.hb_atomic_int_t, %struct.hb_atomic_ptr_t }
%struct.hb_reference_count_t = type { %struct.hb_atomic_int_t }
%struct.hb_atomic_int_t = type { i32 }
%struct.hb_atomic_ptr_t = type { ptr }
%struct.anon.1 = type { ptr, ptr, ptr, ptr, ptr, ptr, ptr, ptr }
%struct.anon.2 = type { ptr, ptr, ptr, ptr, ptr, ptr, ptr, ptr }
%struct.anon.3 = type { ptr, ptr, ptr, ptr, ptr, ptr, ptr, ptr }
%struct.hb_segment_properties_t = type { i32, i32, ptr, ptr, ptr }
%struct.hb_buffer_t = type <{ %struct.hb_object_header_t, ptr, i32, i32, i32, i32, i32, i32, %struct.hb_segment_properties_t, i8, i8, i8, i8, i32, i32, i32, i32, [4 x i8], ptr, ptr, ptr, [2 x [5 x i32]], [2 x i32], i8, i8, [2 x i8], i32, i32, i32, ptr, ptr, ptr, i32, [4 x i8] }>
%struct.hb_glyph_info_t = type { i32, i32, i32, %union._hb_var_int_t, %union._hb_var_int_t }
%union._hb_var_int_t = type { i32 }

; Function Attrs: mustprogress uwtable
define linkonce_odr hidden noundef i32 @_ZN18hb_unicode_funcs_t6scriptEj(ptr noundef nonnull align 8 dereferenceable(216) %0, i32 noundef %1) #1 comdat align 2 {
  %3 = alloca ptr, align 8
  %4 = alloca i32, align 4
  store ptr %0, ptr %3, align 8
  store i32 %1, ptr %4, align 4
  %5 = load ptr, ptr %3, align 8
  %6 = getelementptr inbounds %struct.hb_unicode_funcs_t, ptr %5, i32 0, i32 2
  %7 = getelementptr inbounds %struct.anon.1, ptr %6, i32 0, i32 4
  %8 = load ptr, ptr %7, align 8
  %9 = load i32, ptr %4, align 4
  %10 = getelementptr inbounds %struct.hb_unicode_funcs_t, ptr %5, i32 0, i32 3
  %11 = getelementptr inbounds %struct.anon.2, ptr %10, i32 0, i32 4
  %12 = load ptr, ptr %11, align 8
  %13 = call noundef i32 %8(ptr noundef %5, i32 noundef %9, ptr noundef %12)
  ret i32 %13
}

; Function Attrs: mustprogress nounwind uwtable
define linkonce_odr hidden void @_ZN11hb_buffer_t14assert_unicodeEv(ptr noundef nonnull align 8 dereferenceable(220) %0) #0 comdat align 2 {
  %2 = alloca ptr, align 8
  store ptr %0, ptr %2, align 8
  ret void
}

; Function Attrs: mustprogress uwtable
define hidden void @_ZN11hb_buffer_t24guess_segment_propertiesEv(ptr noundef nonnull align 8 dereferenceable(220) %0) #1 align 2 {
  %2 = alloca ptr, align 8
  %3 = alloca i32, align 4
  %4 = alloca i32, align 4
  store ptr %0, ptr %2, align 8
  %5 = load ptr, ptr %2, align 8
  call void @_ZN11hb_buffer_t14assert_unicodeEv(ptr noundef nonnull align 8 dereferenceable(220) %5)
  %6 = getelementptr inbounds %struct.hb_buffer_t, ptr %5, i32 0, i32 8
  %7 = getelementptr inbounds %struct.hb_segment_properties_t, ptr %6, i32 0, i32 1
  %8 = load i32, ptr %7, align 4
  %9 = icmp eq i32 %8, 0
  br i1 %9, label %10, label %44

10:                                               ; preds = %1
  store i32 0, ptr %3, align 4
  br label %11

11:                                               ; preds = %40, %10
  %12 = load i32, ptr %3, align 4
  %13 = getelementptr inbounds %struct.hb_buffer_t, ptr %5, i32 0, i32 14
  %14 = load i32, ptr %13, align 8
  %15 = icmp ult i32 %12, %14
  br i1 %15, label %16, label %43

16:                                               ; preds = %11
  %17 = getelementptr inbounds %struct.hb_buffer_t, ptr %5, i32 0, i32 1
  %18 = load ptr, ptr %17, align 8
  %19 = getelementptr inbounds %struct.hb_buffer_t, ptr %5, i32 0, i32 18
  %20 = load ptr, ptr %19, align 8
  %21 = load i32, ptr %3, align 4
  %22 = zext i32 %21 to i64
  %23 = getelementptr inbounds %struct.hb_glyph_info_t, ptr %20, i64 %22
  %24 = getelementptr inbounds %struct.hb_glyph_info_t, ptr %23, i32 0, i32 0
  %25 = load i32, ptr %24, align 4
  %26 = call noundef i32 @_ZN18hb_unicode_funcs_t6scriptEj(ptr noundef nonnull align 8 dereferenceable(216) %18, i32 noundef %25)
  store i32 %26, ptr %4, align 4
  %27 = load i32, ptr %4, align 4
  %28 = icmp ne i32 %27, 1517910393
  br i1 %28, label %29, label %39

29:                                               ; preds = %16
  %30 = load i32, ptr %4, align 4
  %31 = icmp ne i32 %30, 1516858984
  br i1 %31, label %32, label %39

32:                                               ; preds = %29
  %33 = load i32, ptr %4, align 4
  %34 = icmp ne i32 %33, 1517976186
  br i1 %34, label %35, label %39

35:                                               ; preds = %32
  %36 = load i32, ptr %4, align 4
  %37 = getelementptr inbounds %struct.hb_buffer_t, ptr %5, i32 0, i32 8
  %38 = getelementptr inbounds %struct.hb_segment_properties_t, ptr %37, i32 0, i32 1
  store i32 %36, ptr %38, align 4
  br label %43

39:                                               ; preds = %32, %29, %16
  br label %40

40:                                               ; preds = %39
  %41 = load i32, ptr %3, align 4
  %42 = add i32 %41, 1
  store i32 %42, ptr %3, align 4
  br label %11, !llvm.loop !22

43:                                               ; preds = %35, %11
  br label %44

44:                                               ; preds = %43, %1
  %45 = getelementptr inbounds %struct.hb_buffer_t, ptr %5, i32 0, i32 8
  %46 = getelementptr inbounds %struct.hb_segment_properties_t, ptr %45, i32 0, i32 0
  %47 = load i32, ptr %46, align 8
  %48 = icmp eq i32 %47, 0
  br i1 %48, label %49, label %64

49:                                               ; preds = %44
  %50 = getelementptr inbounds %struct.hb_buffer_t, ptr %5, i32 0, i32 8
  %51 = getelementptr inbounds %struct.hb_segment_properties_t, ptr %50, i32 0, i32 1
  %52 = load i32, ptr %51, align 4
  %53 = call i32 @hb_script_get_horizontal_direction(i32 noundef %52)
  %54 = getelementptr inbounds %struct.hb_buffer_t, ptr %5, i32 0, i32 8
  %55 = getelementptr inbounds %struct.hb_segment_properties_t, ptr %54, i32 0, i32 0
  store i32 %53, ptr %55, align 8
  %56 = getelementptr inbounds %struct.hb_buffer_t, ptr %5, i32 0, i32 8
  %57 = getelementptr inbounds %struct.hb_segment_properties_t, ptr %56, i32 0, i32 0
  %58 = load i32, ptr %57, align 8
  %59 = icmp eq i32 %58, 0
  br i1 %59, label %60, label %63

60:                                               ; preds = %49
  %61 = getelementptr inbounds %struct.hb_buffer_t, ptr %5, i32 0, i32 8
  %62 = getelementptr inbounds %struct.hb_segment_properties_t, ptr %61, i32 0, i32 0
  store i32 4, ptr %62, align 8
  br label %63

63:                                               ; preds = %60, %49
  br label %64

64:                                               ; preds = %63, %44
  %65 = getelementptr inbounds %struct.hb_buffer_t, ptr %5, i32 0, i32 8
  %66 = getelementptr inbounds %struct.hb_segment_properties_t, ptr %65, i32 0, i32 2
  %67 = load ptr, ptr %66, align 8
  %68 = icmp eq ptr %67, null
  br i1 %68, label %69, label %73

69:                                               ; preds = %64
  %70 = call ptr @hb_language_get_default()
  %71 = getelementptr inbounds %struct.hb_buffer_t, ptr %5, i32 0, i32 8
  %72 = getelementptr inbounds %struct.hb_segment_properties_t, ptr %71, i32 0, i32 2
  store ptr %70, ptr %72, align 8
  br label %73

73:                                               ; preds = %69, %64
  ret void
}

; Function Attrs: mustprogress uwtable
define hidden void @hb_buffer_guess_segment_properties(ptr noundef %0) #1 {
  %2 = alloca ptr, align 8
  store ptr %0, ptr %2, align 8
  %3 = load ptr, ptr %2, align 8
  call void @_ZN11hb_buffer_t24guess_segment_propertiesEv(ptr noundef nonnull align 8 dereferenceable(220) %3)
  ret void
}